target datalayout = "e-m:e-p270:32:32-p271:32:32-p272:64:64-i64:64-i128:128-f80:128-n8:16:32:64-S128"
target triple = "x86_64-pc-linux-gnu"

; Function Attrs: nounwind uwtable
define float @stbir__filter_cubic(float noundef %0, float noundef %1, ptr noundef %2) #3 {
  %4 = alloca float, align 4
  %5 = alloca float, align 4
  %6 = alloca float, align 4
  %7 = alloca ptr, align 8
  store float %0, ptr %5, align 4, !tbaa !29
  store float %1, ptr %6, align 4, !tbaa !29
  store ptr %2, ptr %7, align 8, !tbaa !3
  %8 = load float, ptr %5, align 4, !tbaa !29
  %9 = fcmp olt float %8, 0.000000e+00
  br i1 %9, label %10, label %13

10:                                               ; preds = %3
  %11 = load float, ptr %5, align 4, !tbaa !29
  %12 = fneg float %11
  store float %12, ptr %5, align 4, !tbaa !29
  br label %13

13:                                               ; preds = %10, %3
  %14 = load float, ptr %5, align 4, !tbaa !29
  %15 = fcmp olt float %14, 1.000000e+00
  br i1 %15, label %16, label %26

16:                                               ; preds = %13
  %17 = load float, ptr %5, align 4, !tbaa !29
  %18 = load float, ptr %5, align 4, !tbaa !29
  %19 = fmul float %17, %18
  %20 = load float, ptr %5, align 4, !tbaa !29
  %21 = fmul float 3.000000e+00, %20
  %22 = fsub float %21, 6.000000e+00
  %23 = fmul float %19, %22
  %24 = fadd float 4.000000e+00, %23
  %25 = fdiv float %24, 6.000000e+00
  store float %25, ptr %4, align 4
  br label %41

26:                                               ; preds = %13
  %27 = load float, ptr %5, align 4, !tbaa !29
  %28 = fcmp olt float %27, 2.000000e+00
  br i1 %28, label %29, label %39

29:                                               ; preds = %26
  %30 = load float, ptr %5, align 4, !tbaa !29
  %31 = load float, ptr %5, align 4, !tbaa !29
  %32 = load float, ptr %5, align 4, !tbaa !29
  %33 = fsub float 6.000000e+00, %32
  %34 = fmul float %31, %33
  %35 = fadd float -1.200000e+01, %34
  %36 = fmul float %30, %35
  %37 = fadd float 8.000000e+00, %36
  %38 = fdiv float %37, 6.000000e+00
  store float %38, ptr %4, align 4
  br label %41

39:                                               ; preds = %26
  br label %40

40:                                               ; preds = %39
  store float 0.000000e+00, ptr %4, align 4
  br label %41

41:                                               ; preds = %40, %29, %16
  %42 = load float, ptr %4, align 4
  ret float %42
}