; Function Attrs: mustprogress nofree norecurse nosync nounwind willreturn memory(none) uwtable
define float @stbir__filter_cubic(float noundef %0, float %1, ptr readnone captures(none) %2) #2 {
  %4 = fcmp olt float %0, 0.000000e+00
  %5 = fneg float %0
  %.011 = select i1 %4, float %5, float %0
  %6 = fcmp olt float %.011, 1.000000e+00
  br i1 %6, label %7, label %14

7:                                                ; preds = %3
  %8 = fmul float %.011, %.011
  %9 = fmul float %.011, 3.000000e+00
  %10 = fadd float %9, -6.000000e+00
  %11 = fmul float %8, %10
  %12 = fadd float %11, 4.000000e+00
  %13 = fdiv float %12, 6.000000e+00
  br label %23

14:                                               ; preds = %3
  %15 = fcmp olt float %.011, 2.000000e+00
  br i1 %15, label %16, label %23

16:                                               ; preds = %14
  %17 = fsub float 6.000000e+00, %.011
  %18 = fmul float %.011, %17
  %19 = fadd float %18, -1.200000e+01
  %20 = fmul float %.011, %19
  %21 = fadd float %20, 8.000000e+00
  %22 = fdiv float %21, 6.000000e+00
  br label %23

23:                                               ; preds = %14, %16, %7
  %.0 = phi float [ %13, %7 ], [ %22, %16 ], [ 0.000000e+00, %14 ]
  ret float %.0
}